; ModuleID = '46/1461.c'
source_filename = "46/1461.c"
target datalayout = "e-m:e-p270:32:32-p271:32:32-p272:64:64-i64:64-f80:128-n8:16:32:64-S128"
target triple = "x86_64-pc-linux-gnu"

@.str = private unnamed_addr constant [5 x i8] c"%d%d\00", align 1
@.str.1 = private unnamed_addr constant [3 x i8] c"%d\00", align 1
@.str.2 = private unnamed_addr constant [4 x i8] c"%d\0A\00", align 1

; Function Attrs: noinline nounwind uwtable
define dso_local i32 @main() #0 {
  %1 = alloca i32, align 4
  %2 = alloca [102 x [102 x i32]], align 16
  %3 = alloca [102 x [102 x i32]], align 16
  %4 = alloca i32, align 4
  %5 = alloca i32, align 4
  %6 = alloca i32, align 4
  %7 = alloca i32, align 4
  %8 = alloca i32, align 4
  %9 = alloca i32, align 4
  %10 = alloca i32, align 4
  store i32 0, i32* %1, align 4
  %11 = call i32 (i8*, ...) @__isoc99_scanf(i8* getelementptr inbounds ([5 x i8], [5 x i8]* @.str, i64 0, i64 0), i32* %5, i32* %4)
  store i32 0, i32* %8, align 4
  br label %12

12:                                               ; preds = %33, %0
  %13 = load i32, i32* %8, align 4
  %14 = load i32, i32* %5, align 4
  %15 = icmp slt i32 %13, %14
  br i1 %15, label %16, label %36

16:                                               ; preds = %12
  store i32 0, i32* %9, align 4
  br label %17

17:                                               ; preds = %29, %16
  %18 = load i32, i32* %9, align 4
  %19 = load i32, i32* %4, align 4
  %20 = icmp slt i32 %18, %19
  br i1 %20, label %21, label %32

21:                                               ; preds = %17
  %22 = load i32, i32* %8, align 4
  %23 = sext i32 %22 to i64
  %24 = getelementptr inbounds [102 x [102 x i32]], [102 x [102 x i32]]* %2, i64 0, i64 %23
  %25 = load i32, i32* %9, align 4
  %26 = sext i32 %25 to i64
  %27 = getelementptr inbounds [102 x i32], [102 x i32]* %24, i64 0, i64 %26
  %28 = call i32 (i8*, ...) @__isoc99_scanf(i8* getelementptr inbounds ([3 x i8], [3 x i8]* @.str.1, i64 0, i64 0), i32* %27)
  br label %29

29:                                               ; preds = %21
  %30 = load i32, i32* %9, align 4
  %31 = add nsw i32 %30, 1
  store i32 %31, i32* %9, align 4
  br label %17

32:                                               ; preds = %17
  br label %33

33:                                               ; preds = %32
  %34 = load i32, i32* %8, align 4
  %35 = add nsw i32 %34, 1
  store i32 %35, i32* %8, align 4
  br label %12

36:                                               ; preds = %12
  store i32 1, i32* %10, align 4
  store i32 0, i32* %6, align 4
  store i32 0, i32* %7, align 4
  %37 = getelementptr inbounds [102 x [102 x i32]], [102 x [102 x i32]]* %2, i64 0, i64 0
  %38 = getelementptr inbounds [102 x i32], [102 x i32]* %37, i64 0, i64 0
  %39 = load i32, i32* %38, align 16
  %40 = call i32 (i8*, ...) @printf(i8* getelementptr inbounds ([4 x i8], [4 x i8]* @.str.2, i64 0, i64 0), i32 %39)
  %41 = getelementptr inbounds [102 x [102 x i32]], [102 x [102 x i32]]* %3, i64 0, i64 0
  %42 = getelementptr inbounds [102 x i32], [102 x i32]* %41, i64 0, i64 0
  store i32 1, i32* %42, align 16
  br label %43

43:                                               ; preds = %195, %36
  %44 = load i32, i32* %10, align 4
  %45 = load i32, i32* %4, align 4
  %46 = load i32, i32* %5, align 4
  %47 = mul nsw i32 %45, %46
  %48 = icmp slt i32 %44, %47
  br i1 %48, label %49, label %196

49:                                               ; preds = %43
  br label %50

50:                                               ; preds = %67, %49
  %51 = load i32, i32* %7, align 4
  %52 = add nsw i32 %51, 1
  %53 = load i32, i32* %4, align 4
  %54 = icmp slt i32 %52, %53
  br i1 %54, label %55, label %65

55:                                               ; preds = %50
  %56 = load i32, i32* %6, align 4
  %57 = sext i32 %56 to i64
  %58 = getelementptr inbounds [102 x [102 x i32]], [102 x [102 x i32]]* %3, i64 0, i64 %57
  %59 = load i32, i32* %7, align 4
  %60 = add nsw i32 %59, 1
  %61 = sext i32 %60 to i64
  %62 = getelementptr inbounds [102 x i32], [102 x i32]* %58, i64 0, i64 %61
  %63 = load i32, i32* %62, align 4
  %64 = icmp eq i32 %63, 0
  br label %65

65:                                               ; preds = %55, %50
  %66 = phi i1 [ false, %50 ], [ %64, %55 ]
  br i1 %66, label %67, label %86

67:                                               ; preds = %65
  %68 = load i32, i32* %7, align 4
  %69 = add nsw i32 %68, 1
  store i32 %69, i32* %7, align 4
  %70 = load i32, i32* %10, align 4
  %71 = add nsw i32 %70, 1
  store i32 %71, i32* %10, align 4
  %72 = load i32, i32* %6, align 4
  %73 = sext i32 %72 to i64
  %74 = getelementptr inbounds [102 x [102 x i32]], [102 x [102 x i32]]* %3, i64 0, i64 %73
  %75 = load i32, i32* %7, align 4
  %76 = sext i32 %75 to i64
  %77 = getelementptr inbounds [102 x i32], [102 x i32]* %74, i64 0, i64 %76
  store i32 1, i32* %77, align 4
  %78 = load i32, i32* %6, align 4
  %79 = sext i32 %78 to i64
  %80 = getelementptr inbounds [102 x [102 x i32]], [102 x [102 x i32]]* %2, i64 0, i64 %79
  %81 = load i32, i32* %7, align 4
  %82 = sext i32 %81 to i64
  %83 = getelementptr inbounds [102 x i32], [102 x i32]* %80, i64 0, i64 %82
  %84 = load i32, i32* %83, align 4
  %85 = call i32 (i8*, ...) @printf(i8* getelementptr inbounds ([4 x i8], [4 x i8]* @.str.2, i64 0, i64 0), i32 %84)
  br label %50

86:                                               ; preds = %65
  br label %87

87:                                               ; preds = %104, %86
  %88 = load i32, i32* %6, align 4
  %89 = add nsw i32 %88, 1
  %90 = load i32, i32* %5, align 4
  %91 = icmp slt i32 %89, %90
  br i1 %91, label %92, label %102

92:                                               ; preds = %87
  %93 = load i32, i32* %6, align 4
  %94 = add nsw i32 %93, 1
  %95 = sext i32 %94 to i64
  %96 = getelementptr inbounds [102 x [102 x i32]], [102 x [102 x i32]]* %3, i64 0, i64 %95
  %97 = load i32, i32* %7, align 4
  %98 = sext i32 %97 to i64
  %99 = getelementptr inbounds [102 x i32], [102 x i32]* %96, i64 0, i64 %98
  %100 = load i32, i32* %99, align 4
  %101 = icmp eq i32 %100, 0
  br label %102

102:                                              ; preds = %92, %87
  %103 = phi i1 [ false, %87 ], [ %101, %92 ]
  br i1 %103, label %104, label %123

104:                                              ; preds = %102
  %105 = load i32, i32* %6, align 4
  %106 = add nsw i32 %105, 1
  store i32 %106, i32* %6, align 4
  %107 = load i32, i32* %10, align 4
  %108 = add nsw i32 %107, 1
  store i32 %108, i32* %10, align 4
  %109 = load i32, i32* %6, align 4
  %110 = sext i32 %109 to i64
  %111 = getelementptr inbounds [102 x [102 x i32]], [102 x [102 x i32]]* %3, i64 0, i64 %110
  %112 = load i32, i32* %7, align 4
  %113 = sext i32 %112 to i64
  %114 = getelementptr inbounds [102 x i32], [102 x i32]* %111, i64 0, i64 %113
  store i32 1, i32* %114, align 4
  %115 = load i32, i32* %6, align 4
  %116 = sext i32 %115 to i64
  %117 = getelementptr inbounds [102 x [102 x i32]], [102 x [102 x i32]]* %2, i64 0, i64 %116
  %118 = load i32, i32* %7, align 4
  %119 = sext i32 %118 to i64
  %120 = getelementptr inbounds [102 x i32], [102 x i32]* %117, i64 0, i64 %119
  %121 = load i32, i32* %120, align 4
  %122 = call i32 (i8*, ...) @printf(i8* getelementptr inbounds ([4 x i8], [4 x i8]* @.str.2, i64 0, i64 0), i32 %121)
  br label %87

123:                                              ; preds = %102
  br label %124

124:                                              ; preds = %140, %123
  %125 = load i32, i32* %7, align 4
  %126 = sub nsw i32 %125, 1
  %127 = icmp sge i32 %126, 0
  br i1 %127, label %128, label %138

128:                                              ; preds = %124
  %129 = load i32, i32* %6, align 4
  %130 = sext i32 %129 to i64
  %131 = getelementptr inbounds [102 x [102 x i32]], [102 x [102 x i32]]* %3, i64 0, i64 %130
  %132 = load i32, i32* %7, align 4
  %133 = sub nsw i32 %132, 1
  %134 = sext i32 %133 to i64
  %135 = getelementptr inbounds [102 x i32], [102 x i32]* %131, i64 0, i64 %134
  %136 = load i32, i32* %135, align 4
  %137 = icmp eq i32 %136, 0
  br label %138

138:                                              ; preds = %128, %124
  %139 = phi i1 [ false, %124 ], [ %137, %128 ]
  br i1 %139, label %140, label %159

140:                                              ; preds = %138
  %141 = load i32, i32* %7, align 4
  %142 = add nsw i32 %141, -1
  store i32 %142, i32* %7, align 4
  %143 = load i32, i32* %10, align 4
  %144 = add nsw i32 %143, 1
  store i32 %144, i32* %10, align 4
  %145 = load i32, i32* %6, align 4
  %146 = sext i32 %145 to i64
  %147 = getelementptr inbounds [102 x [102 x i32]], [102 x [102 x i32]]* %3, i64 0, i64 %146
  %148 = load i32, i32* %7, align 4
  %149 = sext i32 %148 to i64
  %150 = getelementptr inbounds [102 x i32], [102 x i32]* %147, i64 0, i64 %149
  store i32 1, i32* %150, align 4
  %151 = load i32, i32* %6, align 4
  %152 = sext i32 %151 to i64
  %153 = getelementptr inbounds [102 x [102 x i32]], [102 x [102 x i32]]* %2, i64 0, i64 %152
  %154 = load i32, i32* %7, align 4
  %155 = sext i32 %154 to i64
  %156 = getelementptr inbounds [102 x i32], [102 x i32]* %153, i64 0, i64 %155
  %157 = load i32, i32* %156, align 4
  %158 = call i32 (i8*, ...) @printf(i8* getelementptr inbounds ([4 x i8], [4 x i8]* @.str.2, i64 0, i64 0), i32 %157)
  br label %124

159:                                              ; preds = %138
  br label %160

160:                                              ; preds = %176, %159
  %161 = load i32, i32* %6, align 4
  %162 = sub nsw i32 %161, 1
  %163 = icmp sge i32 %162, 0
  br i1 %163, label %164, label %174

164:                                              ; preds = %160
  %165 = load i32, i32* %6, align 4
  %166 = sub nsw i32 %165, 1
  %167 = sext i32 %166 to i64
  %168 = getelementptr inbounds [102 x [102 x i32]], [102 x [102 x i32]]* %3, i64 0, i64 %167
  %169 = load i32, i32* %7, align 4
  %170 = sext i32 %169 to i64
  %171 = getelementptr inbounds [102 x i32], [102 x i32]* %168, i64 0, i64 %170
  %172 = load i32, i32* %171, align 4
  %173 = icmp eq i32 %172, 0
  br label %174

174:                                              ; preds = %164, %160
  %175 = phi i1 [ false, %160 ], [ %173, %164 ]
  br i1 %175, label %176, label %195

176:                                              ; preds = %174
  %177 = load i32, i32* %6, align 4
  %178 = add nsw i32 %177, -1
  store i32 %178, i32* %6, align 4
  %179 = load i32, i32* %10, align 4
  %180 = add nsw i32 %179, 1
  store i32 %180, i32* %10, align 4
  %181 = load i32, i32* %6, align 4
  %182 = sext i32 %181 to i64
  %183 = getelementptr inbounds [102 x [102 x i32]], [102 x [102 x i32]]* %3, i64 0, i64 %182
  %184 = load i32, i32* %7, align 4
  %185 = sext i32 %184 to i64
  %186 = getelementptr inbounds [102 x i32], [102 x i32]* %183, i64 0, i64 %185
  store i32 1, i32* %186, align 4
  %187 = load i32, i32* %6, align 4
  %188 = sext i32 %187 to i64
  %189 = getelementptr inbounds [102 x [102 x i32]], [102 x [102 x i32]]* %2, i64 0, i64 %188
  %190 = load i32, i32* %7, align 4
  %191 = sext i32 %190 to i64
  %192 = getelementptr inbounds [102 x i32], [102 x i32]* %189, i64 0, i64 %191
  %193 = load i32, i32* %192, align 4
  %194 = call i32 (i8*, ...) @printf(i8* getelementptr inbounds ([4 x i8], [4 x i8]* @.str.2, i64 0, i64 0), i32 %193)
  br label %160

195:                                              ; preds = %174
  br label %43

196:                                              ; preds = %43
  ret i32 1
}

declare dso_local i32 @__isoc99_scanf(i8*, ...) #1

declare dso_local i32 @printf(i8*, ...) #1


!llvm.module.flags = !{!0}
!llvm.ident = !{!1}

!0 = !{i32 1, !"wchar_size", i32 4}
!1 = !{!"clang version 10.0.0-4ubuntu1 "}
